; Function Attrs: mustprogress uwtable
define void @_ZN17DisplayFilterEdit13focusOutEventEP11QFocusEvent(ptr noundef nonnull align 8 dereferenceable(352) %0, ptr noundef %1) unnamed_addr #2 align 2 personality ptr @__gxx_personality_v0 {
  %3 = alloca %class.QString, align 8
  %4 = getelementptr inbounds i8, ptr %0, i64 56
  %5 = load i32, ptr %4, align 8
  %6 = icmp eq i32 %5, 4
  br i1 %6, label %7, label %_ZN7QStringD2Ev.exit

7:                                                ; preds = %2
  tail call void @_ZN17DisplayFilterEdit21popFilterSyntaxStatusEv(ptr noundef nonnull align 8 dereferenceable(352) %0)
  call void @llvm.memset.p0.i64(ptr noundef nonnull align 8 dereferenceable(24) %3, i8 0, i64 24, i1 false)
  invoke void @_ZN7QWidget10setToolTipERK7QString(ptr noundef nonnull align 8 dereferenceable(40) %0, ptr noundef nonnull align 8 dereferenceable(24) %3)
          to label %8 unwind label %13

8:                                                ; preds = %7
  %9 = load ptr, ptr %3, align 8
  %.not.i.i.i = icmp eq ptr %9, null
  br i1 %.not.i.i.i, label %_ZN7QStringD2Ev.exit, label %_ZN17QArrayDataPointerIDsE5derefEv.exit.i.i

_ZN17QArrayDataPointerIDsE5derefEv.exit.i.i:      ; preds = %8
  %10 = atomicrmw sub ptr %9, i32 1 seq_cst, align 4
  %.not.i.i = icmp eq i32 %10, 1
  br i1 %.not.i.i, label %11, label %_ZN7QStringD2Ev.exit

11:                                               ; preds = %_ZN17QArrayDataPointerIDsE5derefEv.exit.i.i
  %12 = load ptr, ptr %3, align 8
  call void @_ZN10QArrayData10deallocateEPS_xx(ptr noundef %12, i64 noundef 2, i64 noundef 8) #19
  br label %_ZN7QStringD2Ev.exit

13:                                               ; preds = %7
  %14 = landingpad { ptr, i32 }
          cleanup
  %15 = load ptr, ptr %3, align 8
  %.not.i.i.i3 = icmp eq ptr %15, null
  br i1 %.not.i.i.i3, label %_ZN7QStringD2Ev.exit6, label %_ZN17QArrayDataPointerIDsE5derefEv.exit.i.i4

_ZN17QArrayDataPointerIDsE5derefEv.exit.i.i4:     ; preds = %13
  %16 = atomicrmw sub ptr %15, i32 1 seq_cst, align 4
  %.not.i.i5 = icmp eq i32 %16, 1
  br i1 %.not.i.i5, label %17, label %_ZN7QStringD2Ev.exit6

17:                                               ; preds = %_ZN17QArrayDataPointerIDsE5derefEv.exit.i.i4
  %18 = load ptr, ptr %3, align 8
  call void @_ZN10QArrayData10deallocateEPS_xx(ptr noundef %18, i64 noundef 2, i64 noundef 8) #19
  br label %_ZN7QStringD2Ev.exit6

_ZN7QStringD2Ev.exit6:                            ; preds = %13, %_ZN17QArrayDataPointerIDsE5derefEv.exit.i.i4, %17
  resume { ptr, i32 } %14

_ZN7QStringD2Ev.exit:                             ; preds = %11, %_ZN17QArrayDataPointerIDsE5derefEv.exit.i.i, %8, %2
  call void @_ZN14SyntaxLineEdit13focusOutEventEP11QFocusEvent(ptr noundef nonnull align 8 dereferenceable(185) %0, ptr noundef %1)
  ret void
}